target datalayout = "e-m:e-p270:32:32-p271:32:32-p272:64:64-i64:64-i128:128-f80:128-n8:16:32:64-S128"
target triple = "x86_64-pc-linux-gnu"

%"class.(anonymous namespace)::StmtProfiler" = type <{ ptr, ptr, i8, i8, [6 x i8] }>
%"class.clang::QualType" = type { %"class.llvm::PointerIntPair" }
%"class.llvm::PointerIntPair" = type { %"struct.llvm::detail::PunnedPointer" }
%"struct.llvm::detail::PunnedPointer" = type { [8 x i8] }
%"class.llvm::FoldingSetNodeID" = type { %"class.llvm::SmallVector" }
%"class.llvm::SmallVector" = type { %"class.llvm::SmallVectorImpl", %"struct.llvm::SmallVectorStorage" }
%"class.llvm::SmallVectorImpl" = type { %"class.llvm::SmallVectorTemplateBase" }
%"class.llvm::SmallVectorTemplateBase" = type { %"class.llvm::SmallVectorTemplateCommon" }
%"class.llvm::SmallVectorTemplateCommon" = type { %"class.llvm::SmallVectorBase" }
%"class.llvm::SmallVectorBase" = type { ptr, i32, i32 }
%"struct.llvm::SmallVectorStorage" = type { [128 x i8] }
%"class.clang::SourceLocation" = type { i32 }
%"class.clang::Stmt" = type { %union.anon.415 }
%union.anon.415 = type { %"class.clang::Stmt::PseudoObjectExprBitfields" }
%"class.clang::Stmt::PseudoObjectExprBitfields" = type { i64 }
%"class.llvm::StringRef" = type { ptr, i64 }
%"class.clang::ValueStmt" = type { %"class.clang::Stmt" }
%"class.clang::Expr" = type { %"class.clang::ValueStmt", %"class.clang::QualType" }
%"class.clang::StringLiteral" = type { %"class.clang::Expr" }
%"class.clang::Stmt::StringLiteralBitfields" = type { i32, i32 }

; Function Attrs: mustprogress nounwind uwtable
define linkonce_odr hidden noundef ptr @_ZNK4llvm25SmallVectorTemplateCommonIjvE10getFirstElEv(ptr noundef nonnull align 8 dereferenceable(16) %0) #0 comdat align 2 {
  %2 = alloca ptr, align 8
  store ptr %0, ptr %2, align 8
  %3 = load ptr, ptr %2, align 8
  %4 = getelementptr inbounds i8, ptr %3, i64 16
  ret ptr %4
}

; Function Attrs: mustprogress nounwind uwtable
define linkonce_odr hidden noundef i32 @_ZNK5clang13StringLiteral18getNumConcatenatedEv(ptr noundef nonnull align 8 dereferenceable(16) %0) #0 comdat align 2 {
  %2 = alloca ptr, align 8
  store ptr %0, ptr %2, align 8
  %3 = load ptr, ptr %2, align 8
  %4 = getelementptr inbounds nuw %"class.clang::Stmt", ptr %3, i32 0, i32 0
  %5 = getelementptr inbounds nuw %"class.clang::Stmt::StringLiteralBitfields", ptr %4, i32 0, i32 1
  %6 = load i32, ptr %5, align 4
  ret i32 %6
}

; Function Attrs: mustprogress nounwind uwtable
define linkonce_odr hidden noundef i32 @_ZNK5clang13StringLiteral18numTrailingObjectsEN4llvm25trailing_objects_internal19TrailingObjectsBase13OverloadTokenIjEE(ptr noundef nonnull align 8 dereferenceable(16) %0) #0 comdat align 2 {
  %2 = alloca ptr, align 8
  store ptr %0, ptr %2, align 8
  ret i32 1
}

; Function Attrs: mustprogress nounwind uwtable
define linkonce_odr hidden void @_ZN4llvm25SmallVectorTemplateCommonIjvE8grow_podEmm(ptr noundef nonnull align 8 dereferenceable(16) %0, i64 noundef %1, i64 noundef %2) #0 comdat align 2 {
  %4 = alloca ptr, align 8
  %5 = alloca i64, align 8
  %6 = alloca i64, align 8
  store ptr %0, ptr %4, align 8
  store i64 %1, ptr %5, align 8
  store i64 %2, ptr %6, align 8
  %7 = load ptr, ptr %4, align 8
  %8 = call noundef ptr @_ZNK4llvm25SmallVectorTemplateCommonIjvE10getFirstElEv(ptr noundef nonnull align 8 dereferenceable(16) %7)
  %9 = load i64, ptr %5, align 8
  %10 = load i64, ptr %6, align 8
  call void @_ZN4llvm15SmallVectorBaseIjE8grow_podEPvmm(ptr noundef nonnull align 8 dereferenceable(16) %7, ptr noundef %8, i64 noundef %9, i64 noundef %10)
  ret void
}

; Function Attrs: mustprogress nounwind uwtable
define linkonce_odr hidden noundef i64 @_ZN4llvm15TrailingObjectsIN5clang13StringLiteralEJjNS1_14SourceLocationEcEE22callNumTrailingObjectsEPKS2_NS_25trailing_objects_internal19TrailingObjectsBase13OverloadTokenIS2_EE(ptr noundef %0) #0 comdat align 2 {
  %2 = alloca ptr, align 8
  store ptr %0, ptr %2, align 8
  ret i64 1
}

; Function Attrs: mustprogress nounwind uwtable
define linkonce_odr hidden noundef ptr @_ZN4llvm15TrailingObjectsIN5clang13StringLiteralEJjNS1_14SourceLocationEcEE22getTrailingObjectsImplEPKS2_NS_25trailing_objects_internal19TrailingObjectsBase13OverloadTokenIS2_EE(ptr noundef %0) #0 comdat align 2 {
  %2 = alloca ptr, align 8
  store ptr %0, ptr %2, align 8
  %3 = load ptr, ptr %2, align 8
  ret ptr %3
}

; Function Attrs: mustprogress nounwind uwtable
define linkonce_odr hidden noundef i32 @_ZNK5clang13StringLiteral18numTrailingObjectsEN4llvm25trailing_objects_internal19TrailingObjectsBase13OverloadTokenINS_14SourceLocationEEE(ptr noundef nonnull align 8 dereferenceable(16) %0) #0 comdat align 2 {
  %2 = alloca ptr, align 8
  store ptr %0, ptr %2, align 8
  %3 = load ptr, ptr %2, align 8
  %4 = call noundef i32 @_ZNK5clang13StringLiteral18getNumConcatenatedEv(ptr noundef nonnull align 8 dereferenceable(16) %3)
  ret i32 %4
}

; Function Attrs: mustprogress nounwind uwtable
define linkonce_odr hidden noundef i64 @_ZN4llvm15TrailingObjectsIN5clang13StringLiteralEJjNS1_14SourceLocationEcEE22callNumTrailingObjectsIjEEmPKS2_NS_25trailing_objects_internal19TrailingObjectsBase13OverloadTokenIT_EE(ptr noundef %0) #0 comdat align 2 {
  %2 = alloca ptr, align 8
  store ptr %0, ptr %2, align 8
  %3 = load ptr, ptr %2, align 8
  %4 = call noundef i32 @_ZNK5clang13StringLiteral18numTrailingObjectsEN4llvm25trailing_objects_internal19TrailingObjectsBase13OverloadTokenIjEE(ptr noundef nonnull align 8 dereferenceable(16) %3)
  %5 = zext i32 %4 to i64
  ret i64 %5
}

; Function Attrs: mustprogress nounwind uwtable
define linkonce_odr hidden void @_ZN4llvm23SmallVectorTemplateBaseIjLb1EE4growEm(ptr noundef nonnull align 8 dereferenceable(16) %0, i64 noundef %1) #0 comdat align 2 {
  %3 = alloca ptr, align 8
  %4 = alloca i64, align 8
  store ptr %0, ptr %3, align 8
  store i64 %1, ptr %4, align 8
  %5 = load ptr, ptr %3, align 8
  %6 = load i64, ptr %4, align 8
  call void @_ZN4llvm25SmallVectorTemplateCommonIjvE8grow_podEmm(ptr noundef nonnull align 8 dereferenceable(16) %5, i64 noundef %6, i64 noundef 4)
  ret void
}

; Function Attrs: mustprogress nounwind uwtable
define linkonce_odr hidden noundef ptr @_ZN4llvm25trailing_objects_internal19TrailingObjectsImplILi4EN5clang13StringLiteralENS_15TrailingObjectsIS3_JjNS2_14SourceLocationEcEEES3_JjS5_cEE22getTrailingObjectsImplEPKS3_NS0_19TrailingObjectsBase13OverloadTokenIjEE(ptr noundef %0) #0 comdat align 2 {
  %2 = alloca ptr, align 8
  %3 = alloca ptr, align 8
  store ptr %0, ptr %2, align 8
  %4 = load ptr, ptr %2, align 8
  %5 = call noundef ptr @_ZN4llvm15TrailingObjectsIN5clang13StringLiteralEJjNS1_14SourceLocationEcEE22getTrailingObjectsImplEPKS2_NS_25trailing_objects_internal19TrailingObjectsBase13OverloadTokenIS2_EE(ptr noundef %4)
  %6 = load ptr, ptr %2, align 8
  %7 = call noundef i64 @_ZN4llvm15TrailingObjectsIN5clang13StringLiteralEJjNS1_14SourceLocationEcEE22callNumTrailingObjectsEPKS2_NS_25trailing_objects_internal19TrailingObjectsBase13OverloadTokenIS2_EE(ptr noundef %6)
  %8 = getelementptr inbounds %"class.clang::StringLiteral", ptr %5, i64 %7
  store ptr %8, ptr %3, align 8
  %9 = load ptr, ptr %3, align 8
  ret ptr %9
}

; Function Attrs: mustprogress nounwind uwtable
define linkonce_odr hidden noundef i64 @_ZN4llvm15TrailingObjectsIN5clang13StringLiteralEJjNS1_14SourceLocationEcEE22callNumTrailingObjectsIS3_EEmPKS2_NS_25trailing_objects_internal19TrailingObjectsBase13OverloadTokenIT_EE(ptr noundef %0) #0 comdat align 2 {
  %2 = alloca ptr, align 8
  store ptr %0, ptr %2, align 8
  %3 = load ptr, ptr %2, align 8
  %4 = call noundef i32 @_ZNK5clang13StringLiteral18numTrailingObjectsEN4llvm25trailing_objects_internal19TrailingObjectsBase13OverloadTokenINS_14SourceLocationEEE(ptr noundef nonnull align 8 dereferenceable(16) %3)
  %5 = zext i32 %4 to i64
  ret i64 %5
}

; Function Attrs: mustprogress nounwind uwtable
define linkonce_odr hidden noundef ptr @_ZN4llvm25trailing_objects_internal19TrailingObjectsImplILi4EN5clang13StringLiteralENS_15TrailingObjectsIS3_JjNS2_14SourceLocationEcEEEjJS5_cEE22getTrailingObjectsImplEPKS3_NS0_19TrailingObjectsBase13OverloadTokenIS5_EE(ptr noundef %0) #0 comdat align 2 {
  %2 = alloca ptr, align 8
  %3 = alloca ptr, align 8
  store ptr %0, ptr %2, align 8
  %4 = load ptr, ptr %2, align 8
  %5 = call noundef ptr @_ZN4llvm25trailing_objects_internal19TrailingObjectsImplILi4EN5clang13StringLiteralENS_15TrailingObjectsIS3_JjNS2_14SourceLocationEcEEES3_JjS5_cEE22getTrailingObjectsImplEPKS3_NS0_19TrailingObjectsBase13OverloadTokenIjEE(ptr noundef %4)
  %6 = load ptr, ptr %2, align 8
  %7 = call noundef i64 @_ZN4llvm15TrailingObjectsIN5clang13StringLiteralEJjNS1_14SourceLocationEcEE22callNumTrailingObjectsIjEEmPKS2_NS_25trailing_objects_internal19TrailingObjectsBase13OverloadTokenIT_EE(ptr noundef %6)
  %8 = getelementptr inbounds i32, ptr %5, i64 %7
  store ptr %8, ptr %3, align 8
  %9 = load ptr, ptr %3, align 8
  ret ptr %9
}

; Function Attrs: mustprogress nounwind uwtable
define linkonce_odr hidden noundef ptr @_ZN4llvm25SmallVectorTemplateCommonIjvE5beginEv(ptr noundef nonnull align 8 dereferenceable(16) %0) #0 comdat align 2 {
  %2 = alloca ptr, align 8
  store ptr %0, ptr %2, align 8
  %3 = load ptr, ptr %2, align 8
  %4 = getelementptr inbounds nuw %"class.llvm::SmallVectorBase", ptr %3, i32 0, i32 0
  %5 = load ptr, ptr %4, align 8
  ret ptr %5
}

; Function Attrs: mustprogress nounwind uwtable
define linkonce_odr hidden noundef ptr @_ZN4llvm25SmallVectorTemplateCommonIjvE32reserveForParamAndGetAddressImplINS_23SmallVectorTemplateBaseIjLb1EEEEEPKjPT_RS5_m(ptr noundef %0, ptr noundef nonnull align 4 dereferenceable(4) %1, i64 noundef %2) #0 comdat align 2 {
  %4 = alloca ptr, align 8
  %5 = alloca ptr, align 8
  %6 = alloca ptr, align 8
  %7 = alloca i64, align 8
  %8 = alloca i64, align 8
  %9 = alloca i8, align 1
  %10 = alloca i64, align 8
  store ptr %0, ptr %5, align 8
  store ptr %1, ptr %6, align 8
  store i64 %2, ptr %7, align 8
  %11 = load ptr, ptr %5, align 8
  %12 = call noundef i64 @_ZNK4llvm15SmallVectorBaseIjE4sizeEv(ptr noundef nonnull align 8 dereferenceable(16) %11)
  %13 = load i64, ptr %7, align 8
  %14 = add i64 %12, %13
  store i64 %14, ptr %8, align 8
  %15 = load i64, ptr %8, align 8
  %16 = load ptr, ptr %5, align 8
  %17 = call noundef i64 @_ZNK4llvm15SmallVectorBaseIjE8capacityEv(ptr noundef nonnull align 8 dereferenceable(16) %16)
  %18 = icmp ule i64 %15, %17
  br i1 %18, label %19, label %21

19:                                               ; preds = %3
  %20 = load ptr, ptr %6, align 8
  store ptr %20, ptr %4, align 8
  br label %35

21:                                               ; preds = %3
  store i8 0, ptr %9, align 1
  store i64 -1, ptr %10, align 8
  %22 = load ptr, ptr %5, align 8
  %23 = load i64, ptr %8, align 8
  call void @_ZN4llvm23SmallVectorTemplateBaseIjLb1EE4growEm(ptr noundef nonnull align 8 dereferenceable(16) %22, i64 noundef %23)
  %24 = load i8, ptr %9, align 1
  %25 = trunc i8 %24 to i1
  br i1 %25, label %26, label %31

26:                                               ; preds = %21
  %27 = load ptr, ptr %5, align 8
  %28 = call noundef ptr @_ZN4llvm25SmallVectorTemplateCommonIjvE5beginEv(ptr noundef nonnull align 8 dereferenceable(16) %27)
  %29 = load i64, ptr %10, align 8
  %30 = getelementptr inbounds i32, ptr %28, i64 %29
  br label %33

31:                                               ; preds = %21
  %32 = load ptr, ptr %6, align 8
  br label %33

33:                                               ; preds = %31, %26
  %34 = phi ptr [ %30, %26 ], [ %32, %31 ]
  store ptr %34, ptr %4, align 8
  br label %35

35:                                               ; preds = %33, %19
  %36 = load ptr, ptr %4, align 8
  ret ptr %36
}

; Function Attrs: mustprogress nounwind uwtable
define linkonce_odr hidden noundef ptr @_ZNK4llvm15TrailingObjectsIN5clang13StringLiteralEJjNS1_14SourceLocationEcEE18getTrailingObjectsIjEEPKT_v(ptr noundef nonnull align 4 dereferenceable(4) %0) #0 comdat align 2 {
  %2 = alloca ptr, align 8
  store ptr %0, ptr %2, align 8
  %3 = load ptr, ptr %2, align 8
  call void @_ZN4llvm15TrailingObjectsIN5clang13StringLiteralEJjNS1_14SourceLocationEcEE31verifyTrailingObjectsAssertionsEv()
  %4 = call noundef ptr @_ZN4llvm25trailing_objects_internal19TrailingObjectsImplILi4EN5clang13StringLiteralENS_15TrailingObjectsIS3_JjNS2_14SourceLocationEcEEES3_JjS5_cEE22getTrailingObjectsImplEPKS3_NS0_19TrailingObjectsBase13OverloadTokenIjEE(ptr noundef %3)
  ret ptr %4
}

; Function Attrs: mustprogress nounwind uwtable
define linkonce_odr hidden noundef ptr @_ZN4llvm25trailing_objects_internal19TrailingObjectsImplILi4EN5clang13StringLiteralENS_15TrailingObjectsIS3_JjNS2_14SourceLocationEcEEES5_JcEE22getTrailingObjectsImplEPKS3_NS0_19TrailingObjectsBase13OverloadTokenIcEE(ptr noundef %0) #0 comdat align 2 {
  %2 = alloca ptr, align 8
  %3 = alloca ptr, align 8
  store ptr %0, ptr %2, align 8
  %4 = load ptr, ptr %2, align 8
  %5 = call noundef ptr @_ZN4llvm25trailing_objects_internal19TrailingObjectsImplILi4EN5clang13StringLiteralENS_15TrailingObjectsIS3_JjNS2_14SourceLocationEcEEEjJS5_cEE22getTrailingObjectsImplEPKS3_NS0_19TrailingObjectsBase13OverloadTokenIS5_EE(ptr noundef %4)
  %6 = load ptr, ptr %2, align 8
  %7 = call noundef i64 @_ZN4llvm15TrailingObjectsIN5clang13StringLiteralEJjNS1_14SourceLocationEcEE22callNumTrailingObjectsIS3_EEmPKS2_NS_25trailing_objects_internal19TrailingObjectsBase13OverloadTokenIT_EE(ptr noundef %6)
  %8 = getelementptr inbounds %"class.clang::SourceLocation", ptr %5, i64 %7
  store ptr %8, ptr %3, align 8
  %9 = load ptr, ptr %3, align 8
  ret ptr %9
}

; Function Attrs: mustprogress nounwind uwtable
define linkonce_odr hidden void @_ZN4llvm15TrailingObjectsIN5clang13StringLiteralEJjNS1_14SourceLocationEcEE31verifyTrailingObjectsAssertionsEv() #0 comdat align 2 {
  ret void
}

; Function Attrs: mustprogress nounwind uwtable
define linkonce_odr hidden noundef ptr @_ZN4llvm25SmallVectorTemplateCommonIjvE3endEv(ptr noundef nonnull align 8 dereferenceable(16) %0) #0 comdat align 2 {
  %2 = alloca ptr, align 8
  store ptr %0, ptr %2, align 8
  %3 = load ptr, ptr %2, align 8
  %4 = call noundef ptr @_ZN4llvm25SmallVectorTemplateCommonIjvE5beginEv(ptr noundef nonnull align 8 dereferenceable(16) %3)
  %5 = call noundef i64 @_ZNK4llvm15SmallVectorBaseIjE4sizeEv(ptr noundef nonnull align 8 dereferenceable(16) %3)
  %6 = getelementptr inbounds i32, ptr %4, i64 %5
  ret ptr %6
}

; Function Attrs: mustprogress nounwind uwtable
define linkonce_odr hidden noundef ptr @_ZN4llvm23SmallVectorTemplateBaseIjLb1EE28reserveForParamAndGetAddressERjm(ptr noundef nonnull align 8 dereferenceable(16) %0, ptr noundef nonnull align 4 dereferenceable(4) %1, i64 noundef %2) #0 comdat align 2 {
  %4 = alloca ptr, align 8
  %5 = alloca ptr, align 8
  %6 = alloca i64, align 8
  store ptr %0, ptr %4, align 8
  store ptr %1, ptr %5, align 8
  store i64 %2, ptr %6, align 8
  %7 = load ptr, ptr %4, align 8
  %8 = load ptr, ptr %5, align 8
  %9 = load i64, ptr %6, align 8
  %10 = call noundef ptr @_ZN4llvm25SmallVectorTemplateCommonIjvE32reserveForParamAndGetAddressImplINS_23SmallVectorTemplateBaseIjLb1EEEEEPKjPT_RS5_m(ptr noundef %7, ptr noundef nonnull align 4 dereferenceable(4) %8, i64 noundef %9)
  ret ptr %10
}

; Function Attrs: mustprogress nounwind uwtable
define linkonce_odr hidden noundef i32 @_ZNK5clang13StringLiteral9getLengthEv(ptr noundef nonnull align 8 dereferenceable(16) %0) #0 comdat align 2 {
  %2 = alloca ptr, align 8
  store ptr %0, ptr %2, align 8
  %3 = load ptr, ptr %2, align 8
  %4 = call noundef ptr @_ZNK4llvm15TrailingObjectsIN5clang13StringLiteralEJjNS1_14SourceLocationEcEE18getTrailingObjectsIjEEPKT_v(ptr noundef nonnull align 4 dereferenceable(4) %3)
  %5 = load i32, ptr %4, align 4
  ret i32 %5
}

; Function Attrs: mustprogress nounwind uwtable
define linkonce_odr hidden noundef i32 @_ZNK5clang13StringLiteral16getCharByteWidthEv(ptr noundef nonnull align 8 dereferenceable(16) %0) #0 comdat align 2 {
  %2 = alloca ptr, align 8
  store ptr %0, ptr %2, align 8
  %3 = load ptr, ptr %2, align 8
  %4 = getelementptr inbounds nuw %"class.clang::Stmt", ptr %3, i32 0, i32 0
  %5 = load i32, ptr %4, align 8
  %6 = lshr i32 %5, 21
  %7 = and i32 %6, 7
  ret i32 %7
}

; Function Attrs: mustprogress nounwind uwtable
define linkonce_odr hidden noundef ptr @_ZNK4llvm15TrailingObjectsIN5clang13StringLiteralEJjNS1_14SourceLocationEcEE18getTrailingObjectsIcEEPKT_v(ptr noundef nonnull align 4 dereferenceable(4) %0) #0 comdat align 2 {
  %2 = alloca ptr, align 8
  store ptr %0, ptr %2, align 8
  %3 = load ptr, ptr %2, align 8
  call void @_ZN4llvm15TrailingObjectsIN5clang13StringLiteralEJjNS1_14SourceLocationEcEE31verifyTrailingObjectsAssertionsEv()
  %4 = call noundef ptr @_ZN4llvm25trailing_objects_internal19TrailingObjectsImplILi4EN5clang13StringLiteralENS_15TrailingObjectsIS3_JjNS2_14SourceLocationEcEEES5_JcEE22getTrailingObjectsImplEPKS3_NS0_19TrailingObjectsBase13OverloadTokenIcEE(ptr noundef %3)
  ret ptr %4
}

; Function Attrs: mustprogress nounwind uwtable
define linkonce_odr hidden void @_ZN4llvm23SmallVectorTemplateBaseIjLb1EE9push_backEj(ptr noundef nonnull align 8 dereferenceable(16) %0, i32 noundef %1) #0 comdat align 2 {
  %3 = alloca ptr, align 8
  %4 = alloca i32, align 4
  %5 = alloca ptr, align 8
  store ptr %0, ptr %3, align 8
  store i32 %1, ptr %4, align 4
  %6 = load ptr, ptr %3, align 8
  %7 = call noundef ptr @_ZN4llvm23SmallVectorTemplateBaseIjLb1EE28reserveForParamAndGetAddressERjm(ptr noundef nonnull align 8 dereferenceable(16) %6, ptr noundef nonnull align 4 dereferenceable(4) %4, i64 noundef 1)
  store ptr %7, ptr %5, align 8
  %8 = call noundef ptr @_ZN4llvm25SmallVectorTemplateCommonIjvE3endEv(ptr noundef nonnull align 8 dereferenceable(16) %6)
  %9 = load ptr, ptr %5, align 8
  call void @llvm.memcpy.p0.p0.i64(ptr align 1 %8, ptr align 4 %9, i64 4, i1 false)
  %10 = call noundef i64 @_ZNK4llvm15SmallVectorBaseIjE4sizeEv(ptr noundef nonnull align 8 dereferenceable(16) %6)
  %11 = add i64 %10, 1
  call void @_ZN4llvm15SmallVectorBaseIjE8set_sizeEm(ptr noundef nonnull align 8 dereferenceable(16) %6, i64 noundef %11)
  ret void
}

; Function Attrs: mustprogress nounwind uwtable
define linkonce_odr hidden void @_ZN4llvm9StringRefC2EPKcm(ptr noundef nonnull align 8 dereferenceable(16) %0, ptr noundef %1, i64 noundef %2) unnamed_addr #0 comdat align 2 {
  %4 = alloca ptr, align 8
  %5 = alloca ptr, align 8
  %6 = alloca i64, align 8
  store ptr %0, ptr %4, align 8
  store ptr %1, ptr %5, align 8
  store i64 %2, ptr %6, align 8
  %7 = load ptr, ptr %4, align 8
  %8 = getelementptr inbounds nuw %"class.llvm::StringRef", ptr %7, i32 0, i32 0
  %9 = load ptr, ptr %5, align 8
  store ptr %9, ptr %8, align 8
  %10 = getelementptr inbounds nuw %"class.llvm::StringRef", ptr %7, i32 0, i32 1
  %11 = load i64, ptr %6, align 8
  store i64 %11, ptr %10, align 8
  ret void
}

; Function Attrs: mustprogress nounwind uwtable
define linkonce_odr hidden noundef i32 @_ZNK5clang13StringLiteral13getByteLengthEv(ptr noundef nonnull align 8 dereferenceable(16) %0) #0 comdat align 2 {
  %2 = alloca ptr, align 8
  store ptr %0, ptr %2, align 8
  %3 = load ptr, ptr %2, align 8
  %4 = call noundef i32 @_ZNK5clang13StringLiteral16getCharByteWidthEv(ptr noundef nonnull align 8 dereferenceable(16) %3)
  %5 = call noundef i32 @_ZNK5clang13StringLiteral9getLengthEv(ptr noundef nonnull align 8 dereferenceable(16) %3)
  %6 = mul i32 %4, %5
  ret i32 %6
}

; Function Attrs: mustprogress nounwind uwtable
define linkonce_odr hidden noundef ptr @_ZNK5clang13StringLiteral16getStrDataAsCharEv(ptr noundef nonnull align 8 dereferenceable(16) %0) #0 comdat align 2 {
  %2 = alloca ptr, align 8
  store ptr %0, ptr %2, align 8
  %3 = load ptr, ptr %2, align 8
  %4 = call noundef ptr @_ZNK4llvm15TrailingObjectsIN5clang13StringLiteralEJjNS1_14SourceLocationEcEE18getTrailingObjectsIcEEPKT_v(ptr noundef nonnull align 4 dereferenceable(4) %3)
  ret ptr %4
}

; Function Attrs: mustprogress nounwind uwtable
define linkonce_odr hidden void @_ZN4llvm16FoldingSetNodeID10AddIntegerEi(ptr noundef nonnull align 8 dereferenceable(144) %0, i32 noundef %1) #0 comdat align 2 {
  %3 = alloca ptr, align 8
  %4 = alloca i32, align 4
  store ptr %0, ptr %3, align 8
  store i32 %1, ptr %4, align 4
  %5 = load ptr, ptr %3, align 8
  %6 = getelementptr inbounds nuw %"class.llvm::FoldingSetNodeID", ptr %5, i32 0, i32 0
  %7 = load i32, ptr %4, align 4
  call void @_ZN4llvm23SmallVectorTemplateBaseIjLb1EE9push_backEj(ptr noundef nonnull align 8 dereferenceable(16) %6, i32 noundef %7)
  ret void
}

; Function Attrs: mustprogress nounwind uwtable
define linkonce_odr hidden noundef i32 @_ZN4llvm13to_underlyingIN5clang17StringLiteralKindEEENSt15underlying_typeIT_E4typeES4_(i32 noundef %0) #0 comdat {
  %2 = alloca i32, align 4
  store i32 %0, ptr %2, align 4
  %3 = load i32, ptr %2, align 4
  ret i32 %3
}

; Function Attrs: mustprogress nounwind uwtable
define linkonce_odr hidden noundef i32 @_ZNK5clang13StringLiteral7getKindEv(ptr noundef nonnull align 8 dereferenceable(16) %0) #0 comdat align 2 {
  %2 = alloca ptr, align 8
  store ptr %0, ptr %2, align 8
  %3 = load ptr, ptr %2, align 8
  %4 = getelementptr inbounds nuw %"class.clang::Stmt", ptr %3, i32 0, i32 0
  %5 = load i32, ptr %4, align 8
  %6 = lshr i32 %5, 18
  %7 = and i32 %6, 7
  ret i32 %7
}

; Function Attrs: mustprogress nounwind uwtable
define linkonce_odr hidden { ptr, i64 } @_ZNK5clang13StringLiteral8getBytesEv(ptr noundef nonnull align 8 dereferenceable(16) %0) #0 comdat align 2 {
  %2 = alloca %"class.llvm::StringRef", align 8
  %3 = alloca ptr, align 8
  store ptr %0, ptr %3, align 8
  %4 = load ptr, ptr %3, align 8
  %5 = call noundef ptr @_ZNK5clang13StringLiteral16getStrDataAsCharEv(ptr noundef nonnull align 8 dereferenceable(16) %4)
  %6 = call noundef i32 @_ZNK5clang13StringLiteral13getByteLengthEv(ptr noundef nonnull align 8 dereferenceable(16) %4)
  %7 = zext i32 %6 to i64
  call void @_ZN4llvm9StringRefC2EPKcm(ptr noundef nonnull align 8 dereferenceable(16) %2, ptr noundef %5, i64 noundef %7)
  %8 = load { ptr, i64 }, ptr %2, align 8
  ret { ptr, i64 } %8
}

; Function Attrs: mustprogress nounwind uwtable
define internal void @_ZN12_GLOBAL__N_112StmtProfiler9VisitExprEPKN5clang4ExprE(ptr noundef nonnull align 8 dereferenceable(18) %0, ptr noundef %1) #0 align 2 {
  %3 = alloca ptr, align 8
  %4 = alloca ptr, align 8
  store ptr %0, ptr %3, align 8
  store ptr %1, ptr %4, align 8
  %5 = load ptr, ptr %3, align 8
  %6 = load ptr, ptr %4, align 8
  call void @_ZN12_GLOBAL__N_112StmtProfiler9VisitStmtEPKN5clang4StmtE(ptr noundef nonnull align 8 dereferenceable(18) %5, ptr noundef %6)
  ret void
}

; Function Attrs: mustprogress nounwind uwtable
define internal void @_ZN12_GLOBAL__N_112StmtProfiler18VisitStringLiteralEPKN5clang13StringLiteralE(ptr noundef nonnull align 8 dereferenceable(18) %0, ptr noundef %1) #0 align 2 {
  %3 = alloca ptr, align 8
  %4 = alloca ptr, align 8
  %5 = alloca %"class.llvm::StringRef", align 8
  store ptr %0, ptr %3, align 8
  store ptr %1, ptr %4, align 8
  %6 = load ptr, ptr %3, align 8
  %7 = load ptr, ptr %4, align 8
  call void @_ZN12_GLOBAL__N_112StmtProfiler9VisitExprEPKN5clang4ExprE(ptr noundef nonnull align 8 dereferenceable(18) %6, ptr noundef %7)
  %8 = getelementptr inbounds nuw %"class.(anonymous namespace)::StmtProfiler", ptr %6, i32 0, i32 1
  %9 = load ptr, ptr %8, align 8
  %10 = load ptr, ptr %4, align 8
  %11 = call { ptr, i64 } @_ZNK5clang13StringLiteral8getBytesEv(ptr noundef nonnull align 8 dereferenceable(16) %10)
  %12 = getelementptr inbounds nuw { ptr, i64 }, ptr %5, i32 0, i32 0
  %13 = extractvalue { ptr, i64 } %11, 0
  store ptr %13, ptr %12, align 8
  %14 = getelementptr inbounds nuw { ptr, i64 }, ptr %5, i32 0, i32 1
  %15 = extractvalue { ptr, i64 } %11, 1
  store i64 %15, ptr %14, align 8
  %16 = getelementptr inbounds nuw { ptr, i64 }, ptr %5, i32 0, i32 0
  %17 = load ptr, ptr %16, align 8
  %18 = getelementptr inbounds nuw { ptr, i64 }, ptr %5, i32 0, i32 1
  %19 = load i64, ptr %18, align 8
  call void @_ZN4llvm16FoldingSetNodeID9AddStringENS_9StringRefE(ptr noundef nonnull align 8 dereferenceable(144) %9, ptr %17, i64 %19)
  %20 = getelementptr inbounds nuw %"class.(anonymous namespace)::StmtProfiler", ptr %6, i32 0, i32 1
  %21 = load ptr, ptr %20, align 8
  %22 = load ptr, ptr %4, align 8
  %23 = call noundef i32 @_ZNK5clang13StringLiteral7getKindEv(ptr noundef nonnull align 8 dereferenceable(16) %22)
  %24 = call noundef i32 @_ZN4llvm13to_underlyingIN5clang17StringLiteralKindEEENSt15underlying_typeIT_E4typeES4_(i32 noundef %23)
  call void @_ZN4llvm16FoldingSetNodeID10AddIntegerEi(ptr noundef nonnull align 8 dereferenceable(144) %21, i32 noundef %24)
  ret void
}