; Function Attrs: mustprogress nounwind uwtable
define internal fastcc void @_ZN12_GLOBAL__N_112StmtProfiler18VisitStringLiteralEPKN5clang13StringLiteralE(ptr noundef nonnull align 8 dereferenceable(18) %0, ptr noundef %1) unnamed_addr #0 align 2 {
  tail call fastcc void @_ZN12_GLOBAL__N_112StmtProfiler9VisitStmtEPKN5clang4StmtE(ptr noundef nonnull align 8 dereferenceable(18) %0, ptr noundef %1)
  %3 = getelementptr inbounds nuw i8, ptr %0, i64 8
  %4 = load ptr, ptr %3, align 8
  %5 = getelementptr inbounds nuw i8, ptr %1, i64 20
  %6 = getelementptr inbounds nuw i8, ptr %1, i64 4
  %7 = load i32, ptr %6, align 4
  %8 = zext i32 %7 to i64
  %9 = getelementptr inbounds nuw %"class.clang::SourceLocation", ptr %5, i64 %8
  %10 = load i32, ptr %1, align 8
  %11 = lshr i32 %10, 21
  %12 = and i32 %11, 7
  %13 = getelementptr inbounds nuw i8, ptr %1, i64 16
  %14 = load i32, ptr %13, align 4
  %15 = mul i32 %12, %14
  %16 = zext i32 %15 to i64
  tail call void @_ZN4llvm16FoldingSetNodeID9AddStringENS_9StringRefE(ptr noundef nonnull align 8 dereferenceable(144) %4, ptr nonnull %9, i64 %16) #11
  %17 = load ptr, ptr %3, align 8
  %18 = load i32, ptr %1, align 8
  %19 = tail call noundef i64 @_ZNK4llvm15SmallVectorBaseIjE4sizeEv(ptr noundef nonnull align 8 dereferenceable(144) %17) #11
  %20 = add i64 %19, 1
  %21 = tail call noundef i64 @_ZNK4llvm15SmallVectorBaseIjE8capacityEv(ptr noundef nonnull align 8 dereferenceable(144) %17) #11
  %.not.i.i.i.i = icmp ugt i64 %20, %21
  br i1 %.not.i.i.i.i, label %22, label %_ZN4llvm16FoldingSetNodeID10AddIntegerEi.exit

22:                                               ; preds = %2
  %23 = getelementptr inbounds nuw i8, ptr %17, i64 16
  tail call void @_ZN4llvm15SmallVectorBaseIjE8grow_podEPvmm(ptr noundef nonnull align 8 dereferenceable(144) %17, ptr noundef nonnull %23, i64 noundef %20, i64 noundef 4) #11
  br label %_ZN4llvm16FoldingSetNodeID10AddIntegerEi.exit

_ZN4llvm16FoldingSetNodeID10AddIntegerEi.exit:    ; preds = %2, %22
  %24 = lshr i32 %18, 18
  %25 = and i32 %24, 7
  %26 = load ptr, ptr %17, align 8
  %27 = tail call noundef i64 @_ZNK4llvm15SmallVectorBaseIjE4sizeEv(ptr noundef nonnull align 8 dereferenceable(144) %17) #11
  %28 = getelementptr inbounds i32, ptr %26, i64 %27
  store i32 %25, ptr %28, align 1
  %29 = tail call noundef i64 @_ZNK4llvm15SmallVectorBaseIjE4sizeEv(ptr noundef nonnull align 8 dereferenceable(144) %17) #11
  %30 = add i64 %29, 1
  tail call void @_ZN4llvm15SmallVectorBaseIjE8set_sizeEm(ptr noundef nonnull align 8 dereferenceable(144) %17, i64 noundef %30) #11
  ret void
}